target datalayout = "e-m:e-p270:32:32-p271:32:32-p272:64:64-i64:64-i128:128-f80:128-n8:16:32:64-S128"
target triple = "x86_64-pc-linux-gnu"

%struct.SDL_Mouse = type { ptr, ptr, ptr, ptr, ptr, ptr, ptr, ptr, ptr, ptr, ptr, ptr, ptr, ptr, i8, float, float, ptr, float, float, float, float, float, float, float, float, double, double, i8, i8, i8, i8, i8, i8, i8, i8, i64, i8, float, i8, float, i8, i32, i32, i8, i8, i8, i8, i8, i8, i8, i8, i8, ptr, i32, ptr, ptr, ptr, ptr, i8, ptr }
%struct.SDL_Cursor = type { ptr, ptr }

@SDL_mouse = internal global %struct.SDL_Mouse zeroinitializer, align 8
@.str.27 = private unnamed_addr constant [46 x i8] c"CreateSystemCursor is not currently supported\00", align 1

; Function Attrs: nounwind uwtable
define hidden ptr @SDL_GetMouse() #0 {
  ret ptr @SDL_mouse
}

; Function Attrs: nounwind uwtable
define hidden ptr @SDL_CreateSystemCursor_REAL(i32 noundef %0) #0 {
  %2 = alloca ptr, align 8
  %3 = alloca i32, align 4
  %4 = alloca ptr, align 8
  %5 = alloca ptr, align 8
  %6 = alloca i32, align 4
  store i32 %0, ptr %3, align 4
  call void @llvm.lifetime.start.p0(i64 8, ptr %4) #7
  %7 = call ptr @SDL_GetMouse()
  store ptr %7, ptr %4, align 8
  call void @llvm.lifetime.start.p0(i64 8, ptr %5) #7
  %8 = load ptr, ptr %4, align 8
  %9 = getelementptr inbounds nuw %struct.SDL_Mouse, ptr %8, i32 0, i32 1
  %10 = load ptr, ptr %9, align 8
  %11 = icmp ne ptr %10, null
  br i1 %11, label %14, label %12

12:                                               ; preds = %1
  %13 = call zeroext i1 (ptr, ...) @SDL_SetError_REAL(ptr noundef @.str.27)
  store ptr null, ptr %2, align 8
  store i32 1, ptr %6, align 4
  br label %33

14:                                               ; preds = %1
  %15 = load ptr, ptr %4, align 8
  %16 = getelementptr inbounds nuw %struct.SDL_Mouse, ptr %15, i32 0, i32 1
  %17 = load ptr, ptr %16, align 8
  %18 = load i32, ptr %3, align 4
  %19 = call ptr %17(i32 noundef %18)
  store ptr %19, ptr %5, align 8
  %20 = load ptr, ptr %5, align 8
  %21 = icmp ne ptr %20, null
  br i1 %21, label %22, label %31

22:                                               ; preds = %14
  %23 = load ptr, ptr %4, align 8
  %24 = getelementptr inbounds nuw %struct.SDL_Mouse, ptr %23, i32 0, i32 56
  %25 = load ptr, ptr %24, align 8
  %26 = load ptr, ptr %5, align 8
  %27 = getelementptr inbounds nuw %struct.SDL_Cursor, ptr %26, i32 0, i32 0
  store ptr %25, ptr %27, align 8
  %28 = load ptr, ptr %5, align 8
  %29 = load ptr, ptr %4, align 8
  %30 = getelementptr inbounds nuw %struct.SDL_Mouse, ptr %29, i32 0, i32 56
  store ptr %28, ptr %30, align 8
  br label %31

31:                                               ; preds = %22, %14
  %32 = load ptr, ptr %5, align 8
  store ptr %32, ptr %2, align 8
  store i32 1, ptr %6, align 4
  br label %33

33:                                               ; preds = %31, %12
  call void @llvm.lifetime.end.p0(i64 8, ptr %5) #7
  call void @llvm.lifetime.end.p0(i64 8, ptr %4) #7
  %34 = load ptr, ptr %2, align 8
  ret ptr %34
}