; Function Attrs: nounwind uwtable
define hidden ptr @SDL_CreateSystemCursor_REAL(i32 noundef %0) local_unnamed_addr #0 {
  %2 = load ptr, ptr getelementptr inbounds nuw (i8, ptr @SDL_mouse, i64 8), align 8
  %.not = icmp eq ptr %2, null
  br i1 %.not, label %3, label %5

3:                                                ; preds = %1
  %4 = tail call zeroext i1 (ptr, ...) @SDL_SetError_REAL(ptr noundef nonnull @.str.27) #13
  br label %9

5:                                                ; preds = %1
  %6 = tail call ptr %2(i32 noundef %0) #13
  %.not11 = icmp eq ptr %6, null
  br i1 %.not11, label %9, label %7

7:                                                ; preds = %5
  %8 = load ptr, ptr getelementptr inbounds nuw (i8, ptr @SDL_mouse, i64 264), align 8
  store ptr %8, ptr %6, align 8
  store ptr %6, ptr getelementptr inbounds nuw (i8, ptr @SDL_mouse, i64 264), align 8
  br label %9

9:                                                ; preds = %5, %7, %3
  %.0 = phi ptr [ null, %3 ], [ %6, %7 ], [ null, %5 ]
  ret ptr %.0
}